target datalayout = "e-m:e-p270:32:32-p271:32:32-p272:64:64-i64:64-i128:128-f80:128-n8:16:32:64-S128"
target triple = "x86_64-pc-linux-gnu"

%"struct.ODDLParser::Text" = type { i64, i64, ptr }

; Function Attrs: mustprogress nounwind uwtable
define hidden void @_ZN10ODDLParser4Text5clearEv(ptr noundef nonnull align 8 dereferenceable(24) %0) #1 align 2 {
  %2 = alloca ptr, align 8
  store ptr %0, ptr %2, align 8
  %3 = load ptr, ptr %2, align 8
  %4 = getelementptr inbounds nuw %"struct.ODDLParser::Text", ptr %3, i32 0, i32 2
  %5 = load ptr, ptr %4, align 8
  %6 = icmp eq ptr %5, null
  br i1 %6, label %8, label %7

7:                                                ; preds = %1
  call void @_ZdaPv(ptr noundef %5) #12
  br label %8

8:                                                ; preds = %7, %1
  %9 = getelementptr inbounds nuw %"struct.ODDLParser::Text", ptr %3, i32 0, i32 2
  store ptr null, ptr %9, align 8
  %10 = getelementptr inbounds nuw %"struct.ODDLParser::Text", ptr %3, i32 0, i32 0
  store i64 0, ptr %10, align 8
  %11 = getelementptr inbounds nuw %"struct.ODDLParser::Text", ptr %3, i32 0, i32 1
  store i64 0, ptr %11, align 8
  ret void
}

; Function Attrs: mustprogress uwtable
define hidden void @_ZN10ODDLParser4Text3setEPKcm(ptr noundef nonnull align 8 dereferenceable(24) %0, ptr noundef %1, i64 noundef %2) #0 align 2 {
  %4 = alloca ptr, align 8
  %5 = alloca ptr, align 8
  %6 = alloca i64, align 8
  store ptr %0, ptr %4, align 8
  store ptr %1, ptr %5, align 8
  store i64 %2, ptr %6, align 8
  %7 = load ptr, ptr %4, align 8
  call void @_ZN10ODDLParser4Text5clearEv(ptr noundef nonnull align 8 dereferenceable(24) %7)
  %8 = load i64, ptr %6, align 8
  %9 = icmp ugt i64 %8, 0
  br i1 %9, label %10, label %30

10:                                               ; preds = %3
  %11 = load i64, ptr %6, align 8
  %12 = getelementptr inbounds nuw %"struct.ODDLParser::Text", ptr %7, i32 0, i32 1
  store i64 %11, ptr %12, align 8
  %13 = getelementptr inbounds nuw %"struct.ODDLParser::Text", ptr %7, i32 0, i32 1
  %14 = load i64, ptr %13, align 8
  %15 = add i64 %14, 1
  %16 = getelementptr inbounds nuw %"struct.ODDLParser::Text", ptr %7, i32 0, i32 0
  store i64 %15, ptr %16, align 8
  %17 = getelementptr inbounds nuw %"struct.ODDLParser::Text", ptr %7, i32 0, i32 0
  %18 = load i64, ptr %17, align 8
  %19 = call noalias noundef nonnull ptr @_Znam(i64 noundef %18) #9
  %20 = getelementptr inbounds nuw %"struct.ODDLParser::Text", ptr %7, i32 0, i32 2
  store ptr %19, ptr %20, align 8
  %21 = getelementptr inbounds nuw %"struct.ODDLParser::Text", ptr %7, i32 0, i32 2
  %22 = load ptr, ptr %21, align 8
  %23 = load ptr, ptr %5, align 8
  %24 = load i64, ptr %6, align 8
  %25 = call ptr @strncpy(ptr noundef %22, ptr noundef %23, i64 noundef %24) #10
  %26 = getelementptr inbounds nuw %"struct.ODDLParser::Text", ptr %7, i32 0, i32 2
  %27 = load ptr, ptr %26, align 8
  %28 = load i64, ptr %6, align 8
  %29 = getelementptr inbounds nuw i8, ptr %27, i64 %28
  store i8 0, ptr %29, align 1
  br label %30

30:                                               ; preds = %10, %3
  ret void
}