; Function Attrs: mustprogress uwtable
define hidden void @_ZN10ODDLParser4Text3setEPKcm(ptr noundef nonnull align 8 captures(none) dereferenceable(24) initializes((0, 16)) %0, ptr noundef readonly captures(none) %1, i64 noundef %2) local_unnamed_addr #0 align 2 {
  %4 = getelementptr inbounds nuw i8, ptr %0, i64 16
  %5 = load ptr, ptr %4, align 8
  %6 = icmp eq ptr %5, null
  br i1 %6, label %_ZN10ODDLParser4Text5clearEv.exit, label %7

7:                                                ; preds = %3
  tail call void @_ZdaPv(ptr noundef nonnull %5) #13
  br label %_ZN10ODDLParser4Text5clearEv.exit

_ZN10ODDLParser4Text5clearEv.exit:                ; preds = %3, %7
  tail call void @llvm.memset.p0.i64(ptr noundef nonnull align 8 dereferenceable(24) %0, i8 0, i64 24, i1 false)
  %.not = icmp eq i64 %2, 0
  br i1 %.not, label %14, label %8

8:                                                ; preds = %_ZN10ODDLParser4Text5clearEv.exit
  %9 = getelementptr inbounds nuw i8, ptr %0, i64 8
  store i64 %2, ptr %9, align 8
  %10 = add i64 %2, 1
  store i64 %10, ptr %0, align 8
  %11 = tail call noalias noundef nonnull ptr @_Znam(i64 noundef %10) #11
  store ptr %11, ptr %4, align 8
  %12 = tail call ptr @strncpy(ptr noundef nonnull %11, ptr noundef %1, i64 noundef %2) #12
  %13 = getelementptr inbounds nuw i8, ptr %11, i64 %2
  store i8 0, ptr %13, align 1
  br label %14

14:                                               ; preds = %8, %_ZN10ODDLParser4Text5clearEv.exit
  ret void
}